target datalayout = "e-m:e-p270:32:32-p271:32:32-p272:64:64-i64:64-i128:128-f80:128-n8:16:32:64-S128"
target triple = "x86_64-pc-linux-gnu"

%struct.GIP_Metadata = type { i16, i16, %struct.GIP_DeviceMetadata, i8, ptr }
%struct.GIP_DeviceMetadata = type { i8, i8, i8, i8, [8 x i32], [8 x i32], ptr, ptr, ptr, ptr, i32 }

; Function Attrs: nounwind uwtable
define internal void @GIP_MetadataFree(ptr noundef %0) #0 {
  %2 = alloca ptr, align 8
  %3 = alloca i32, align 4
  store ptr %0, ptr %2, align 8
  %4 = load ptr, ptr %2, align 8
  %5 = getelementptr inbounds nuw %struct.GIP_Metadata, ptr %4, i32 0, i32 2
  %6 = getelementptr inbounds nuw %struct.GIP_DeviceMetadata, ptr %5, i32 0, i32 6
  %7 = load ptr, ptr %6, align 8
  %8 = icmp ne ptr %7, null
  br i1 %8, label %9, label %14

9:                                                ; preds = %1
  %10 = load ptr, ptr %2, align 8
  %11 = getelementptr inbounds nuw %struct.GIP_Metadata, ptr %10, i32 0, i32 2
  %12 = getelementptr inbounds nuw %struct.GIP_DeviceMetadata, ptr %11, i32 0, i32 6
  %13 = load ptr, ptr %12, align 8
  call void @SDL_free_REAL(ptr noundef %13)
  br label %14

14:                                               ; preds = %9, %1
  %15 = load ptr, ptr %2, align 8
  %16 = getelementptr inbounds nuw %struct.GIP_Metadata, ptr %15, i32 0, i32 2
  %17 = getelementptr inbounds nuw %struct.GIP_DeviceMetadata, ptr %16, i32 0, i32 7
  %18 = load ptr, ptr %17, align 8
  %19 = icmp ne ptr %18, null
  br i1 %19, label %20, label %57

20:                                               ; preds = %14
  call void @llvm.lifetime.start.p0(i64 4, ptr %3) #6
  store i32 0, ptr %3, align 4
  br label %21

21:                                               ; preds = %49, %20
  %22 = load i32, ptr %3, align 4
  %23 = load ptr, ptr %2, align 8
  %24 = getelementptr inbounds nuw %struct.GIP_Metadata, ptr %23, i32 0, i32 2
  %25 = getelementptr inbounds nuw %struct.GIP_DeviceMetadata, ptr %24, i32 0, i32 1
  %26 = load i8, ptr %25, align 1
  %27 = zext i8 %26 to i32
  %28 = icmp slt i32 %22, %27
  br i1 %28, label %29, label %52

29:                                               ; preds = %21
  %30 = load ptr, ptr %2, align 8
  %31 = getelementptr inbounds nuw %struct.GIP_Metadata, ptr %30, i32 0, i32 2
  %32 = getelementptr inbounds nuw %struct.GIP_DeviceMetadata, ptr %31, i32 0, i32 7
  %33 = load ptr, ptr %32, align 8
  %34 = load i32, ptr %3, align 4
  %35 = sext i32 %34 to i64
  %36 = getelementptr inbounds ptr, ptr %33, i64 %35
  %37 = load ptr, ptr %36, align 8
  %38 = icmp ne ptr %37, null
  br i1 %38, label %39, label %48

39:                                               ; preds = %29
  %40 = load ptr, ptr %2, align 8
  %41 = getelementptr inbounds nuw %struct.GIP_Metadata, ptr %40, i32 0, i32 2
  %42 = getelementptr inbounds nuw %struct.GIP_DeviceMetadata, ptr %41, i32 0, i32 7
  %43 = load ptr, ptr %42, align 8
  %44 = load i32, ptr %3, align 4
  %45 = sext i32 %44 to i64
  %46 = getelementptr inbounds ptr, ptr %43, i64 %45
  %47 = load ptr, ptr %46, align 8
  call void @SDL_free_REAL(ptr noundef %47)
  br label %48

48:                                               ; preds = %39, %29
  br label %49

49:                                               ; preds = %48
  %50 = load i32, ptr %3, align 4
  %51 = add nsw i32 %50, 1
  store i32 %51, ptr %3, align 4
  br label %21, !llvm.loop !19

52:                                               ; preds = %21
  %53 = load ptr, ptr %2, align 8
  %54 = getelementptr inbounds nuw %struct.GIP_Metadata, ptr %53, i32 0, i32 2
  %55 = getelementptr inbounds nuw %struct.GIP_DeviceMetadata, ptr %54, i32 0, i32 7
  %56 = load ptr, ptr %55, align 8
  call void @SDL_free_REAL(ptr noundef %56)
  call void @llvm.lifetime.end.p0(i64 4, ptr %3) #6
  br label %57

57:                                               ; preds = %52, %14
  %58 = load ptr, ptr %2, align 8
  %59 = getelementptr inbounds nuw %struct.GIP_Metadata, ptr %58, i32 0, i32 2
  %60 = getelementptr inbounds nuw %struct.GIP_DeviceMetadata, ptr %59, i32 0, i32 8
  %61 = load ptr, ptr %60, align 8
  %62 = icmp ne ptr %61, null
  br i1 %62, label %63, label %68

63:                                               ; preds = %57
  %64 = load ptr, ptr %2, align 8
  %65 = getelementptr inbounds nuw %struct.GIP_Metadata, ptr %64, i32 0, i32 2
  %66 = getelementptr inbounds nuw %struct.GIP_DeviceMetadata, ptr %65, i32 0, i32 8
  %67 = load ptr, ptr %66, align 8
  call void @SDL_free_REAL(ptr noundef %67)
  br label %68

68:                                               ; preds = %63, %57
  %69 = load ptr, ptr %2, align 8
  %70 = getelementptr inbounds nuw %struct.GIP_Metadata, ptr %69, i32 0, i32 2
  %71 = getelementptr inbounds nuw %struct.GIP_DeviceMetadata, ptr %70, i32 0, i32 9
  %72 = load ptr, ptr %71, align 8
  %73 = icmp ne ptr %72, null
  br i1 %73, label %74, label %79

74:                                               ; preds = %68
  %75 = load ptr, ptr %2, align 8
  %76 = getelementptr inbounds nuw %struct.GIP_Metadata, ptr %75, i32 0, i32 2
  %77 = getelementptr inbounds nuw %struct.GIP_DeviceMetadata, ptr %76, i32 0, i32 9
  %78 = load ptr, ptr %77, align 8
  call void @SDL_free_REAL(ptr noundef %78)
  br label %79

79:                                               ; preds = %74, %68
  %80 = load ptr, ptr %2, align 8
  %81 = getelementptr inbounds nuw %struct.GIP_Metadata, ptr %80, i32 0, i32 4
  %82 = load ptr, ptr %81, align 8
  %83 = icmp ne ptr %82, null
  br i1 %83, label %84, label %88

84:                                               ; preds = %79
  %85 = load ptr, ptr %2, align 8
  %86 = getelementptr inbounds nuw %struct.GIP_Metadata, ptr %85, i32 0, i32 4
  %87 = load ptr, ptr %86, align 8
  call void @SDL_free_REAL(ptr noundef %87)
  br label %88

88:                                               ; preds = %84, %79
  %89 = load ptr, ptr %2, align 8
  call void @llvm.memset.p0.i64(ptr align 8 %89, i8 0, i64 136, i1 false)
  ret void
}