; Function Attrs: nounwind uwtable
define internal fastcc void @GIP_MetadataFree(ptr noundef captures(none) %0) unnamed_addr #0 {
  %2 = getelementptr inbounds nuw i8, ptr %0, i64 80
  %3 = load ptr, ptr %2, align 8
  %.not = icmp eq ptr %3, null
  br i1 %.not, label %5, label %4

4:                                                ; preds = %1
  tail call void @SDL_free_REAL(ptr noundef nonnull %3) #10
  br label %5

5:                                                ; preds = %4, %1
  %6 = getelementptr inbounds nuw i8, ptr %0, i64 88
  %7 = load ptr, ptr %6, align 8
  %.not22 = icmp eq ptr %7, null
  br i1 %.not22, label %20, label %.preheader

.preheader:                                       ; preds = %5
  %8 = getelementptr inbounds nuw i8, ptr %0, i64 9
  %9 = load i8, ptr %8, align 1
  %.not28 = icmp eq i8 %9, 0
  br i1 %.not28, label %._crit_edge, label %.lr.ph

.lr.ph:                                           ; preds = %.preheader, %15
  %10 = phi i8 [ %16, %15 ], [ %9, %.preheader ]
  %indvars.iv = phi i64 [ %indvars.iv.next, %15 ], [ 0, %.preheader ]
  %11 = load ptr, ptr %6, align 8
  %12 = getelementptr inbounds nuw ptr, ptr %11, i64 %indvars.iv
  %13 = load ptr, ptr %12, align 8
  %.not26 = icmp eq ptr %13, null
  br i1 %.not26, label %15, label %14

14:                                               ; preds = %.lr.ph
  tail call void @SDL_free_REAL(ptr noundef nonnull %13) #10
  %.pre = load i8, ptr %8, align 1
  br label %15

15:                                               ; preds = %.lr.ph, %14
  %16 = phi i8 [ %10, %.lr.ph ], [ %.pre, %14 ]
  %indvars.iv.next = add nuw nsw i64 %indvars.iv, 1
  %17 = zext i8 %16 to i64
  %18 = icmp samesign ult i64 %indvars.iv.next, %17
  br i1 %18, label %.lr.ph, label %._crit_edge.loopexit, !llvm.loop !25

._crit_edge.loopexit:                             ; preds = %15
  %.pre30 = load ptr, ptr %6, align 8
  br label %._crit_edge

._crit_edge:                                      ; preds = %._crit_edge.loopexit, %.preheader
  %19 = phi ptr [ %.pre30, %._crit_edge.loopexit ], [ %7, %.preheader ]
  tail call void @SDL_free_REAL(ptr noundef %19) #10
  br label %20

20:                                               ; preds = %._crit_edge, %5
  %21 = getelementptr inbounds nuw i8, ptr %0, i64 96
  %22 = load ptr, ptr %21, align 8
  %.not23 = icmp eq ptr %22, null
  br i1 %.not23, label %24, label %23

23:                                               ; preds = %20
  tail call void @SDL_free_REAL(ptr noundef nonnull %22) #10
  br label %24

24:                                               ; preds = %23, %20
  %25 = getelementptr inbounds nuw i8, ptr %0, i64 104
  %26 = load ptr, ptr %25, align 8
  %.not24 = icmp eq ptr %26, null
  br i1 %.not24, label %28, label %27

27:                                               ; preds = %24
  tail call void @SDL_free_REAL(ptr noundef nonnull %26) #10
  br label %28

28:                                               ; preds = %27, %24
  %29 = getelementptr inbounds nuw i8, ptr %0, i64 128
  %30 = load ptr, ptr %29, align 8
  %.not25 = icmp eq ptr %30, null
  br i1 %.not25, label %32, label %31

31:                                               ; preds = %28
  tail call void @SDL_free_REAL(ptr noundef nonnull %30) #10
  br label %32

32:                                               ; preds = %31, %28
  tail call void @llvm.memset.p0.i64(ptr noundef nonnull align 8 dereferenceable(136) %0, i8 0, i64 136, i1 false)
  ret void
}